target datalayout = "e-m:e-p270:32:32-p271:32:32-p272:64:64-i64:64-i128:128-f80:128-n8:16:32:64-S128"
target triple = "x86_64-pc-linux-gnu"

; Function Attrs: nounwind uwtable
define dso_local i64 @compute_user_block_size(i64 noundef %0) #0 {
  %2 = alloca i64, align 8
  %3 = alloca i64, align 8
  %4 = alloca i64, align 8
  %5 = alloca i32, align 4
  store i64 %0, ptr %3, align 8, !tbaa !17
  call void @llvm.lifetime.start.p0(i64 8, ptr %4) #6
  store i64 512, ptr %4, align 8, !tbaa !17
  %6 = load i64, ptr %3, align 8, !tbaa !17
  %7 = icmp eq i64 0, %6
  br i1 %7, label %8, label %9

8:                                                ; preds = %1
  store i64 0, ptr %2, align 8
  store i32 1, ptr %5, align 4
  br label %19

9:                                                ; preds = %1
  br label %10

10:                                               ; preds = %14, %9
  %11 = load i64, ptr %4, align 8, !tbaa !17
  %12 = load i64, ptr %3, align 8, !tbaa !17
  %13 = icmp ult i64 %11, %12
  br i1 %13, label %14, label %17

14:                                               ; preds = %10
  %15 = load i64, ptr %4, align 8, !tbaa !17
  %16 = mul i64 %15, 2
  store i64 %16, ptr %4, align 8, !tbaa !17
  br label %10, !llvm.loop !22

17:                                               ; preds = %10
  %18 = load i64, ptr %4, align 8, !tbaa !17
  store i64 %18, ptr %2, align 8
  store i32 1, ptr %5, align 4
  br label %19

19:                                               ; preds = %17, %8
  call void @llvm.lifetime.end.p0(i64 8, ptr %4) #6
  %20 = load i64, ptr %2, align 8
  ret i64 %20
}