; Function Attrs: nofree norecurse nosync nounwind memory(none) uwtable
define dso_local range(i64 0, -1) i64 @compute_user_block_size(i64 noundef %0) local_unnamed_addr #9 {
  %2 = icmp eq i64 %0, 0
  br i1 %2, label %.loopexit, label %.preheader

.preheader:                                       ; preds = %1, %.preheader
  %.0 = phi i64 [ %4, %.preheader ], [ 512, %1 ]
  %3 = icmp ult i64 %.0, %0
  %4 = shl i64 %.0, 1
  br i1 %3, label %.preheader, label %.loopexit, !llvm.loop !18

.loopexit:                                        ; preds = %.preheader, %1
  %.06 = phi i64 [ 0, %1 ], [ %.0, %.preheader ]
  ret i64 %.06
}